; Function Attrs: nounwind uwtable
define noalias nonnull ptr @l_Array_forIn_x27Unsafe_loop___at___private_Lean_Server_Completion_CompletionInfoSelection_0__Lean_Server_Completion_filterDuplicateCompletionInfos___spec__2___lambda__1(ptr noundef %0, ptr noundef %1, ptr noundef readnone captures(none) %2) local_unnamed_addr #0 {
  %4 = tail call ptr @lean_array_push(ptr noundef %1, ptr noundef %0) #4
  tail call void @lean_inc_heartbeat() #4
  %5 = tail call noalias ptr @mi_malloc_small(i64 noundef 16) #4
  %6 = icmp eq ptr %5, null
  br i1 %6, label %7, label %lean_alloc_ctor.exit

7:                                                ; preds = %3
  tail call void @lean_internal_panic_out_of_memory() #5
  unreachable

lean_alloc_ctor.exit:                             ; preds = %3
  %8 = getelementptr inbounds nuw i8, ptr %5, i64 4
  store i32 1, ptr %5, align 4, !tbaa !8
  store i32 16842768, ptr %8, align 4
  %9 = getelementptr inbounds nuw i8, ptr %5, i64 8
  store ptr %4, ptr %9, align 8, !tbaa !4
  ret ptr %5
}